; Function Attrs: mustprogress uwtable
define dso_local noundef i64 @_ZNSt3__14__fs10filesystem17__hard_link_countERKNS1_4pathEPNS_10error_codeE(ptr noundef nonnull align 8 dereferenceable(24) %0, ptr noundef %1) local_unnamed_addr #0 {
  %3 = alloca %"class.std::__1::error_code", align 8
  %4 = alloca %"struct.std::__1::__fs::filesystem::detail::ErrorHandler.3", align 8
  %5 = alloca %"class.std::__1::error_code", align 8
  %6 = alloca %struct.stat, align 8
  %7 = alloca %"class.std::__1::__fs::filesystem::file_status", align 4
  call void @llvm.lifetime.start.p0(i64 32, ptr nonnull %4) #28
  store ptr @.str.13, ptr %4, align 8, !tbaa !187
  %8 = getelementptr inbounds nuw i8, ptr %4, i64 8
  store ptr %1, ptr %8, align 8, !tbaa !189
  %9 = getelementptr inbounds nuw i8, ptr %4, i64 16
  store ptr %0, ptr %9, align 8, !tbaa !190
  %10 = getelementptr inbounds nuw i8, ptr %4, i64 24
  store ptr null, ptr %10, align 8, !tbaa !191
  %.not.i = icmp eq ptr %1, null
  br i1 %.not.i, label %._ZNSt3__14__fs10filesystem6detail12ErrorHandlerImEC2B8ne210000EPKcPNS_10error_codeEPKNS1_4pathESB_.exit_crit_edge, label %11

._ZNSt3__14__fs10filesystem6detail12ErrorHandlerImEC2B8ne210000EPKcPNS_10error_codeEPKNS1_4pathESB_.exit_crit_edge: ; preds = %2
  %.pre = tail call noundef nonnull align 8 dereferenceable(8) ptr @_ZNSt3__115system_categoryEv() #30
  br label %_ZNSt3__14__fs10filesystem6detail12ErrorHandlerImEC2B8ne210000EPKcPNS_10error_codeEPKNS1_4pathESB_.exit

11:                                               ; preds = %2
  store i32 0, ptr %1, align 8, !tbaa !8
  %12 = tail call noundef nonnull align 8 dereferenceable(8) ptr @_ZNSt3__115system_categoryEv() #30
  %13 = getelementptr inbounds nuw i8, ptr %1, i64 8
  store ptr %12, ptr %13, align 8, !tbaa !13
  br label %_ZNSt3__14__fs10filesystem6detail12ErrorHandlerImEC2B8ne210000EPKcPNS_10error_codeEPKNS1_4pathESB_.exit

_ZNSt3__14__fs10filesystem6detail12ErrorHandlerImEC2B8ne210000EPKcPNS_10error_codeEPKNS1_4pathESB_.exit: ; preds = %._ZNSt3__14__fs10filesystem6detail12ErrorHandlerImEC2B8ne210000EPKcPNS_10error_codeEPKNS1_4pathESB_.exit_crit_edge, %11
  %.pre-phi = phi ptr [ %.pre, %._ZNSt3__14__fs10filesystem6detail12ErrorHandlerImEC2B8ne210000EPKcPNS_10error_codeEPKNS1_4pathESB_.exit_crit_edge ], [ %12, %11 ]
  call void @llvm.lifetime.start.p0(i64 16, ptr nonnull %5) #28
  store i32 0, ptr %5, align 8, !tbaa !8
  %14 = getelementptr inbounds nuw i8, ptr %5, i64 8
  store ptr %.pre-phi, ptr %14, align 8, !tbaa !13
  call void @llvm.lifetime.start.p0(i64 144, ptr nonnull %6) #28
  call void @llvm.lifetime.start.p0(i64 16, ptr nonnull %3) #28, !noalias !195
  store i32 0, ptr %3, align 8, !tbaa !8, !noalias !195
  %15 = getelementptr inbounds nuw i8, ptr %3, i64 8
  store ptr %.pre-phi, ptr %15, align 8, !tbaa !13, !noalias !195
  %16 = load i8, ptr %0, align 8, !noalias !195
  %17 = and i8 %16, 1
  %.not.i.i.i.i.i = icmp eq i8 %17, 0
  %18 = getelementptr inbounds nuw i8, ptr %0, i64 16
  %19 = load ptr, ptr %18, align 8, !noalias !195
  %20 = getelementptr inbounds nuw i8, ptr %0, i64 1
  %21 = select i1 %.not.i.i.i.i.i, ptr %20, ptr %19
  %22 = call i32 @stat(ptr noundef %21, ptr noundef nonnull align 8 dereferenceable(144) %6) #28, !noalias !195
  %23 = icmp eq i32 %22, -1
  br i1 %23, label %24, label %_ZNSt3__14__fs10filesystem6detail10posix_statB8ne210000ERKNS1_4pathER4statPNS_10error_codeE.exit

24:                                               ; preds = %_ZNSt3__14__fs10filesystem6detail12ErrorHandlerImEC2B8ne210000EPKcPNS_10error_codeEPKNS1_4pathESB_.exit
  %25 = tail call ptr @__errno_location() #30
  %26 = load i32, ptr %25, align 4, !tbaa !26, !noalias !195
  %27 = tail call noundef nonnull align 8 dereferenceable(8) ptr @_ZNSt3__116generic_categoryEv() #30
  store i32 %26, ptr %3, align 8, !tbaa !26, !noalias !195
  store ptr %27, ptr %15, align 8, !tbaa !28, !noalias !195
  br label %_ZNSt3__14__fs10filesystem6detail10posix_statB8ne210000ERKNS1_4pathER4statPNS_10error_codeE.exit

_ZNSt3__14__fs10filesystem6detail10posix_statB8ne210000ERKNS1_4pathER4statPNS_10error_codeE.exit: ; preds = %_ZNSt3__14__fs10filesystem6detail12ErrorHandlerImEC2B8ne210000EPKcPNS_10error_codeEPKNS1_4pathESB_.exit, %24
  call void @_ZNSt3__14__fs10filesystem6detail18create_file_statusB8ne210000ERNS_10error_codeERKNS1_4pathERK4statPS3_(ptr dead_on_unwind nonnull writable sret(%"class.std::__1::__fs::filesystem::file_status") align 4 %7, ptr noundef nonnull align 8 dereferenceable(16) %3, ptr noundef nonnull align 8 dereferenceable(24) %0, ptr noundef nonnull align 8 dereferenceable(144) %6, ptr noundef nonnull %5)
  call void @llvm.lifetime.end.p0(i64 16, ptr nonnull %3) #28, !noalias !195
  %28 = load i32, ptr %5, align 8, !tbaa !8
  %.not = icmp eq i32 %28, 0
  br i1 %.not, label %31, label %29

29:                                               ; preds = %_ZNSt3__14__fs10filesystem6detail10posix_statB8ne210000ERKNS1_4pathER4statPNS_10error_codeE.exit
  %30 = call noundef i64 @_ZNKSt3__14__fs10filesystem6detail12ErrorHandlerImE6reportB8ne210000ERKNS_10error_codeE(ptr noundef nonnull align 8 dereferenceable(32) %4, ptr noundef nonnull align 8 dereferenceable(16) %5)
  br label %34

31:                                               ; preds = %_ZNSt3__14__fs10filesystem6detail10posix_statB8ne210000ERKNS1_4pathER4statPNS_10error_codeE.exit
  %32 = getelementptr inbounds nuw i8, ptr %6, i64 16
  %33 = load i64, ptr %32, align 8, !tbaa !198
  br label %34

34:                                               ; preds = %31, %29
  %.0 = phi i64 [ %30, %29 ], [ %33, %31 ]
  call void @llvm.lifetime.end.p0(i64 144, ptr nonnull %6) #28
  call void @llvm.lifetime.end.p0(i64 16, ptr nonnull %5) #28
  call void @llvm.lifetime.end.p0(i64 32, ptr nonnull %4) #28
  ret i64 %.0
}